target datalayout = "e-m:e-p270:32:32-p271:32:32-p272:64:64-i64:64-i128:128-f80:128-n8:16:32:64-S128"
target triple = "x86_64-pc-linux-gnu"

@.str = private unnamed_addr constant [7 x i8] c"socket\00", align 1

; Function Attrs: nounwind uwtable
define i32 @Java_sun_tools_attach_VirtualMachineImpl_socket(ptr noundef %0, ptr noundef %1) #0 {
  %3 = alloca ptr, align 8
  %4 = alloca ptr, align 8
  %5 = alloca i32, align 4
  store ptr %0, ptr %3, align 8
  store ptr %1, ptr %4, align 8
  %6 = call i32 @socket(i32 noundef 1, i32 noundef 1, i32 noundef 0) #5
  store i32 %6, ptr %5, align 4
  %7 = load i32, ptr %5, align 4
  %8 = icmp eq i32 %7, -1
  br i1 %8, label %9, label %11

9:                                                ; preds = %2
  %10 = load ptr, ptr %3, align 8
  call void @JNU_ThrowIOExceptionWithLastError(ptr noundef %10, ptr noundef @.str)
  br label %11

11:                                               ; preds = %9, %2
  %12 = load i32, ptr %5, align 4
  ret i32 %12
}