; Function Attrs: nounwind uwtable
define i32 @Java_sun_tools_attach_VirtualMachineImpl_socket(ptr noundef %0, ptr nocapture noundef readnone %1) local_unnamed_addr #0 {
  %3 = tail call i32 @socket(i32 noundef 1, i32 noundef 1, i32 noundef 0) #11
  %4 = icmp eq i32 %3, -1
  br i1 %4, label %5, label %6

5:                                                ; preds = %2
  tail call void @JNU_ThrowIOExceptionWithLastError(ptr noundef %0, ptr noundef nonnull @.str) #11
  br label %6

6:                                                ; preds = %5, %2
  ret i32 %3
}